target datalayout = "e-m:e-p270:32:32-p271:32:32-p272:64:64-i64:64-i128:128-f80:128-n8:16:32:64-S128"
target triple = "x86_64-pc-linux-gnu"

%struct.nghttp2_frame_hd = type { i64, i32, i8, i8, i8 }
%struct.nghttp2_extension = type { %struct.nghttp2_frame_hd, ptr }
%struct.nghttp2_ext_priority_update = type { i32, ptr, i64 }
%struct.nghttp2_bufs = type { ptr, ptr, ptr, i64, i64, i64, i64, i64 }
%struct.nghttp2_buf_chain = type { ptr, %struct.nghttp2_buf }
%struct.nghttp2_buf = type { ptr, ptr, ptr, ptr, ptr }

@.str.1 = private unnamed_addr constant [113 x i8] c"generated/home/dtcxzyw/WorkSpace/Projects/compilers/llvm-opt-benchmark/bench/nghttp2/nghttp2/lib/nghttp2_frame.c\00", align 1
@.str.6 = private unnamed_addr constant [8 x i8] c"rv == 0\00", align 1
@.str.8 = private unnamed_addr constant [63 x i8] c"nghttp2_buf_avail(buf) >= 4 + priority_update->field_value_len\00", align 1
@__PRETTY_FUNCTION__.nghttp2_frame_pack_priority_update = private unnamed_addr constant [77 x i8] c"void nghttp2_frame_pack_priority_update(nghttp2_bufs *, nghttp2_extension *)\00", align 1

; Function Attrs: nounwind uwtable
define hidden void @nghttp2_frame_pack_frame_hd(ptr noundef %0, ptr noundef %1) #0 {
  %3 = alloca ptr, align 8
  %4 = alloca ptr, align 8
  store ptr %0, ptr %3, align 8, !tbaa !3
  store ptr %1, ptr %4, align 8, !tbaa !8
  %5 = load ptr, ptr %3, align 8, !tbaa !3
  %6 = getelementptr inbounds i8, ptr %5, i64 0
  %7 = load ptr, ptr %4, align 8, !tbaa !8
  %8 = getelementptr inbounds nuw %struct.nghttp2_frame_hd, ptr %7, i32 0, i32 0
  %9 = load i64, ptr %8, align 8, !tbaa !9
  %10 = shl i64 %9, 8
  %11 = trunc i64 %10 to i32
  call void @nghttp2_put_uint32be(ptr noundef %6, i32 noundef %11)
  %12 = load ptr, ptr %4, align 8, !tbaa !8
  %13 = getelementptr inbounds nuw %struct.nghttp2_frame_hd, ptr %12, i32 0, i32 2
  %14 = load i8, ptr %13, align 4, !tbaa !13
  %15 = load ptr, ptr %3, align 8, !tbaa !3
  %16 = getelementptr inbounds i8, ptr %15, i64 3
  store i8 %14, ptr %16, align 1, !tbaa !14
  %17 = load ptr, ptr %4, align 8, !tbaa !8
  %18 = getelementptr inbounds nuw %struct.nghttp2_frame_hd, ptr %17, i32 0, i32 3
  %19 = load i8, ptr %18, align 1, !tbaa !15
  %20 = load ptr, ptr %3, align 8, !tbaa !3
  %21 = getelementptr inbounds i8, ptr %20, i64 4
  store i8 %19, ptr %21, align 1, !tbaa !14
  %22 = load ptr, ptr %3, align 8, !tbaa !3
  %23 = getelementptr inbounds i8, ptr %22, i64 5
  %24 = load ptr, ptr %4, align 8, !tbaa !8
  %25 = getelementptr inbounds nuw %struct.nghttp2_frame_hd, ptr %24, i32 0, i32 1
  %26 = load i32, ptr %25, align 8, !tbaa !16
  call void @nghttp2_put_uint32be(ptr noundef %23, i32 noundef %26)
  ret void
}

; Function Attrs: nounwind uwtable
define hidden void @nghttp2_frame_pack_priority_update(ptr noundef %0, ptr noundef %1) #0 {
  %3 = alloca ptr, align 8
  %4 = alloca ptr, align 8
  %5 = alloca i32, align 4
  %6 = alloca ptr, align 8
  %7 = alloca ptr, align 8
  store ptr %0, ptr %3, align 8, !tbaa !8
  store ptr %1, ptr %4, align 8, !tbaa !8
  call void @llvm.lifetime.start.p0(i64 4, ptr %5) #7
  call void @llvm.lifetime.start.p0(i64 8, ptr %6) #7
  call void @llvm.lifetime.start.p0(i64 8, ptr %7) #7
  %8 = load ptr, ptr %4, align 8, !tbaa !8
  %9 = getelementptr inbounds nuw %struct.nghttp2_extension, ptr %8, i32 0, i32 1
  %10 = load ptr, ptr %9, align 8, !tbaa !49
  store ptr %10, ptr %7, align 8, !tbaa !8
  %11 = load ptr, ptr %3, align 8, !tbaa !8
  %12 = getelementptr inbounds nuw %struct.nghttp2_bufs, ptr %11, i32 0, i32 0
  %13 = load ptr, ptr %12, align 8, !tbaa !70
  %14 = getelementptr inbounds nuw %struct.nghttp2_buf_chain, ptr %13, i32 0, i32 1
  store ptr %14, ptr %6, align 8, !tbaa !8
  %15 = load ptr, ptr %6, align 8, !tbaa !8
  %16 = getelementptr inbounds nuw %struct.nghttp2_buf, ptr %15, i32 0, i32 1
  %17 = load ptr, ptr %16, align 8, !tbaa !86
  %18 = load ptr, ptr %6, align 8, !tbaa !8
  %19 = getelementptr inbounds nuw %struct.nghttp2_buf, ptr %18, i32 0, i32 3
  %20 = load ptr, ptr %19, align 8, !tbaa !76
  %21 = ptrtoint ptr %17 to i64
  %22 = ptrtoint ptr %20 to i64
  %23 = sub i64 %21, %22
  %24 = load ptr, ptr %7, align 8, !tbaa !8
  %25 = getelementptr inbounds nuw %struct.nghttp2_ext_priority_update, ptr %24, i32 0, i32 2
  %26 = load i64, ptr %25, align 8, !tbaa !66
  %27 = add i64 4, %26
  %28 = icmp uge i64 %23, %27
  br i1 %28, label %29, label %30

29:                                               ; preds = %2
  br label %31

30:                                               ; preds = %2
  call void @__assert_fail(ptr noundef @.str.8, ptr noundef @.str.1, i32 noundef 904, ptr noundef @__PRETTY_FUNCTION__.nghttp2_frame_pack_priority_update) #8
  unreachable

31:                                               ; preds = %29
  %32 = load ptr, ptr %6, align 8, !tbaa !8
  %33 = getelementptr inbounds nuw %struct.nghttp2_buf, ptr %32, i32 0, i32 2
  %34 = load ptr, ptr %33, align 8, !tbaa !74
  %35 = getelementptr inbounds i8, ptr %34, i64 -9
  store ptr %35, ptr %33, align 8, !tbaa !74
  %36 = load ptr, ptr %6, align 8, !tbaa !8
  %37 = getelementptr inbounds nuw %struct.nghttp2_buf, ptr %36, i32 0, i32 2
  %38 = load ptr, ptr %37, align 8, !tbaa !74
  %39 = load ptr, ptr %4, align 8, !tbaa !8
  %40 = getelementptr inbounds nuw %struct.nghttp2_extension, ptr %39, i32 0, i32 0
  call void @nghttp2_frame_pack_frame_hd(ptr noundef %38, ptr noundef %40)
  %41 = load ptr, ptr %6, align 8, !tbaa !8
  %42 = getelementptr inbounds nuw %struct.nghttp2_buf, ptr %41, i32 0, i32 3
  %43 = load ptr, ptr %42, align 8, !tbaa !76
  %44 = load ptr, ptr %7, align 8, !tbaa !8
  %45 = getelementptr inbounds nuw %struct.nghttp2_ext_priority_update, ptr %44, i32 0, i32 0
  %46 = load i32, ptr %45, align 8, !tbaa !63
  call void @nghttp2_put_uint32be(ptr noundef %43, i32 noundef %46)
  %47 = load ptr, ptr %6, align 8, !tbaa !8
  %48 = getelementptr inbounds nuw %struct.nghttp2_buf, ptr %47, i32 0, i32 3
  %49 = load ptr, ptr %48, align 8, !tbaa !76
  %50 = getelementptr inbounds i8, ptr %49, i64 4
  store ptr %50, ptr %48, align 8, !tbaa !76
  %51 = load ptr, ptr %3, align 8, !tbaa !8
  %52 = load ptr, ptr %7, align 8, !tbaa !8
  %53 = getelementptr inbounds nuw %struct.nghttp2_ext_priority_update, ptr %52, i32 0, i32 1
  %54 = load ptr, ptr %53, align 8, !tbaa !65
  %55 = load ptr, ptr %7, align 8, !tbaa !8
  %56 = getelementptr inbounds nuw %struct.nghttp2_ext_priority_update, ptr %55, i32 0, i32 2
  %57 = load i64, ptr %56, align 8, !tbaa !66
  %58 = call i32 @nghttp2_bufs_add(ptr noundef %51, ptr noundef %54, i64 noundef %57)
  store i32 %58, ptr %5, align 4, !tbaa !19
  %59 = load i32, ptr %5, align 4, !tbaa !19
  %60 = icmp eq i32 %59, 0
  br i1 %60, label %61, label %62

61:                                               ; preds = %31
  br label %63

62:                                               ; preds = %31
  call void @__assert_fail(ptr noundef @.str.6, ptr noundef @.str.1, i32 noundef 916, ptr noundef @__PRETTY_FUNCTION__.nghttp2_frame_pack_priority_update) #8
  unreachable

63:                                               ; preds = %61
  call void @llvm.lifetime.end.p0(i64 8, ptr %7) #7
  call void @llvm.lifetime.end.p0(i64 8, ptr %6) #7
  call void @llvm.lifetime.end.p0(i64 4, ptr %5) #7
  ret void
}