; Function Attrs: nounwind uwtable
define hidden void @nghttp2_frame_pack_priority_update(ptr noundef %0, ptr noundef readonly captures(none) %1) local_unnamed_addr #0 {
  %3 = getelementptr inbounds nuw i8, ptr %1, i64 16
  %4 = load ptr, ptr %3, align 8, !tbaa !46
  %5 = load ptr, ptr %0, align 8, !tbaa !65
  %6 = getelementptr inbounds nuw i8, ptr %5, i64 16
  %7 = load ptr, ptr %6, align 8, !tbaa !79
  %8 = getelementptr inbounds nuw i8, ptr %5, i64 32
  %9 = load ptr, ptr %8, align 8, !tbaa !71
  %10 = ptrtoint ptr %7 to i64
  %11 = ptrtoint ptr %9 to i64
  %12 = sub i64 %10, %11
  %13 = getelementptr inbounds nuw i8, ptr %4, i64 16
  %14 = load i64, ptr %13, align 8, !tbaa !63
  %15 = add i64 %14, 4
  %.not = icmp ult i64 %12, %15
  br i1 %.not, label %16, label %17

16:                                               ; preds = %2
  tail call void @__assert_fail(ptr noundef nonnull @.str.8, ptr noundef nonnull @.str.1, i32 noundef 904, ptr noundef nonnull @__PRETTY_FUNCTION__.nghttp2_frame_pack_priority_update) #19
  unreachable

17:                                               ; preds = %2
  %18 = getelementptr inbounds nuw i8, ptr %5, i64 24
  %19 = load ptr, ptr %18, align 8, !tbaa !69
  %20 = getelementptr inbounds i8, ptr %19, i64 -9
  store ptr %20, ptr %18, align 8, !tbaa !69
  %21 = load i64, ptr %1, align 8, !tbaa !3
  %.tr.i = trunc i64 %21 to i32
  %22 = shl i32 %.tr.i, 8
  tail call void @nghttp2_put_uint32be(ptr noundef nonnull %20, i32 noundef %22) #18
  %23 = getelementptr inbounds nuw i8, ptr %1, i64 12
  %24 = load i8, ptr %23, align 4, !tbaa !9
  %25 = getelementptr inbounds i8, ptr %19, i64 -6
  store i8 %24, ptr %25, align 1, !tbaa !10
  %26 = getelementptr inbounds nuw i8, ptr %1, i64 13
  %27 = load i8, ptr %26, align 1, !tbaa !11
  %28 = getelementptr inbounds i8, ptr %19, i64 -5
  store i8 %27, ptr %28, align 1, !tbaa !10
  %29 = getelementptr inbounds i8, ptr %19, i64 -4
  %30 = getelementptr inbounds nuw i8, ptr %1, i64 8
  %31 = load i32, ptr %30, align 8, !tbaa !12
  tail call void @nghttp2_put_uint32be(ptr noundef nonnull %29, i32 noundef %31) #18
  %32 = load ptr, ptr %8, align 8, !tbaa !71
  %33 = load i32, ptr %4, align 8, !tbaa !60
  tail call void @nghttp2_put_uint32be(ptr noundef %32, i32 noundef %33) #18
  %34 = load ptr, ptr %8, align 8, !tbaa !71
  %35 = getelementptr inbounds nuw i8, ptr %34, i64 4
  store ptr %35, ptr %8, align 8, !tbaa !71
  %36 = getelementptr inbounds nuw i8, ptr %4, i64 8
  %37 = load ptr, ptr %36, align 8, !tbaa !62
  %38 = load i64, ptr %13, align 8, !tbaa !63
  %39 = tail call i32 @nghttp2_bufs_add(ptr noundef nonnull %0, ptr noundef %37, i64 noundef %38) #18
  %40 = icmp eq i32 %39, 0
  br i1 %40, label %42, label %41

41:                                               ; preds = %17
  tail call void @__assert_fail(ptr noundef nonnull @.str.6, ptr noundef nonnull @.str.1, i32 noundef 916, ptr noundef nonnull @__PRETTY_FUNCTION__.nghttp2_frame_pack_priority_update) #19
  unreachable

42:                                               ; preds = %17
  ret void
}